; Function Attrs: mustprogress uwtable
define void @_ZN18OpenImageIO_v2_6_012ImageBufAlgo4flopERKNS_8ImageBufENS_3ROIEi(ptr noalias nonnull sret(%"class.OpenImageIO_v2_6_0::ImageBuf") align 8 %agg.result, ptr noundef nonnull align 8 dereferenceable(16) %src, ptr nocapture noundef readonly byval(%"struct.OpenImageIO_v2_6_0::ROI") align 8 %roi, i32 noundef %nthreads) local_unnamed_addr #5 personality ptr @__gxx_personality_v0 {
entry:
  tail call void @_ZN18OpenImageIO_v2_6_08ImageBufC1Ev(ptr noundef nonnull align 8 dereferenceable(16) %agg.result)
  %call = invoke noundef zeroext i1 @_ZN18OpenImageIO_v2_6_012ImageBufAlgo4flopERNS_8ImageBufERKS1_NS_3ROIEi(ptr noundef nonnull align 8 dereferenceable(16) %agg.result, ptr noundef nonnull align 8 dereferenceable(16) %src, ptr noundef nonnull byval(%"struct.OpenImageIO_v2_6_0::ROI") align 8 %roi, i32 noundef %nthreads)
          to label %invoke.cont unwind label %lpad

invoke.cont:                                      ; preds = %entry
  br i1 %call, label %nrvo.skipdtor, label %land.lhs.true

land.lhs.true:                                    ; preds = %invoke.cont
  %call2 = invoke noundef zeroext i1 @_ZNK18OpenImageIO_v2_6_08ImageBuf9has_errorEv(ptr noundef nonnull align 8 dereferenceable(16) %agg.result)
          to label %invoke.cont1 unwind label %lpad

invoke.cont1:                                     ; preds = %land.lhs.true
  br i1 %call2, label %nrvo.skipdtor, label %if.then

if.then:                                          ; preds = %invoke.cont1
  invoke void @_ZNK18OpenImageIO_v2_6_08ImageBuf8errorfmtIJEEEvPKcDpRKT_(ptr noundef nonnull align 8 dereferenceable(16) %agg.result, ptr noundef nonnull @.str.7)
          to label %nrvo.skipdtor unwind label %lpad

lpad:                                             ; preds = %if.then, %land.lhs.true, %entry
  %0 = landingpad { ptr, i32 }
          cleanup
  tail call void @_ZN18OpenImageIO_v2_6_08ImageBufD1Ev(ptr noundef nonnull align 8 dereferenceable(16) %agg.result) #22
  resume { ptr, i32 } %0

nrvo.skipdtor:                                    ; preds = %invoke.cont, %invoke.cont1, %if.then
  ret void
}